
 Start         Length     Name                   Class
 0002:00000000 000002113H .text                  CODE
 0003:00000000 000000DFEH .rdata                 DATA
 0004:00000000 0000005E4H .data                  DATA
 0005:00000000 000002FA0H .rsrc                  DATA


  Address         Publics by Value

 0001:00000000       CheckRegData
 0001:00000070       loc_401070
 0001:000000E3       loc_4010E3
 0001:000000F3       loc_4010F3
 0001:00000110       ReadRegData
 0001:000001D2       loc_4011D2
 0001:00000209       loc_401209
 0001:00000220       sub_401220
 0001:00000250       sub_401250
 0001:00000356       loc_401356
 0001:00000370       CheckInput
 0001:00000396       loc_401396
 0001:000003F0       loc_4013F0
 0001:00000410       loc_401410
 0001:00000420       loc_401420
 0001:00000430       loc_401430
 0001:00000449       loc_401449
 0001:00000463       loc_401463
 0001:0000047F       loc_40147F
 0001:0000049B       loc_40149B
 0001:000004DD       CheckLabel
 0001:000005F7       EndLab
 0001:00000610       WriteRegDat
 0001:000006AD       loc_4016AD
 0001:000006C0       sub_4016C0
 0001:000006E0       loc_4016E0
 0001:000006EA       loc_4016EA
 0001:000006F3       loc_4016F3
 0001:00000700       DialogFunc
 0001:000007A2       loc_4017A2
 0001:000007AA       loc_4017AA
 0001:000007C0       loc_4017C0
 0001:000007CE       loc_4017CE
 0001:000007DC       loc_4017DC
 0001:000007EB       loc_4017EB
 0001:00000800       sub_401800
 0001:00000854       loc_401854
 0001:0000088C       loc_40188C
 0001:000008B5       loc_4018B5
 0001:000008CF       loc_4018CF
 0001:000008F8       loc_4018F8
 0001:00000970       loc_401970
 0001:000009C3       loc_4019C3
 0001:000009D1       loc_4019D1
 0001:000009E1       loc_4019E1
 0001:00000A15       loc_401A15
 0001:00000A44       loc_401A44
 0001:00000A60       WinMain(x,x,x,x)
 0001:00000B88       loc_401B88
 0001:00000BD0       loc_401BD0
 0001:00000BF0       loc_401BF0
 0001:00000C01       loc_401C01
 0001:00000C20       SM3Encrypt
 0001:00000CD0       sub_401CD0
 0001:00000E70       sub_401E70
 0001:00001110       loc_402110
 0001:00001150       loc_402150
 0001:00001200       loc_402200
 0001:000012A0       loc_4022A0
 0001:00001390       sub_402390
 0001:000013C3       loc_4023C3
 0001:000013F8       loc_4023F8
 0001:000013FB       loc_4023FB
 0001:00001414       loc_402414
 0001:00001429       loc_402429
 0001:00001440       loc_402440
 0001:00001442       loc_402442
 0001:00001449       __security_check_cookie(x)
 0001:00001454       $failure$4
 0001:0000145A       pre_c_initialization(void)
 0001:000014C5       loc_4024C5
 0001:000014EE       loc_4024EE
 0001:000014FD       loc_4024FD
 0001:00001505       sub_402505
 0001:0000150D       sub_40250D
 0001:0000151F       __scrt_common_main_seh(void)
 0001:0000158C       loc_40258C
 0001:000015A9       loc_4025A9
 0001:000015AE       loc_4025AE
 0001:000015DF       loc_4025DF
 0001:000015FD       loc_4025FD
 0001:0000162B       loc_40262B
 0001:0000166B       loc_40266B
 0001:00001675       loc_402675
 0001:00001685       loc_402685
 0001:0000168C       loc_40268C
 0001:00001692       loc_402692
 0001:0000169B       start
 0001:000016A5       ___raise_securityfailure
 0001:000016CD       ___report_gsfailure
 0001:000016E6       loc_4026E6
 0001:000017C6       find_pe_section(uchar * const,uint)
 0001:000017EB       loc_4027EB
 0001:000017FA       loc_4027FA
 0001:00001801       loc_402801
 0001:00001803       loc_402803
 0001:00001806       loc_402806
 0001:0000180A       ___scrt_acquire_startup_lock
 0001:00001824       loc_402824
 0001:00001828       loc_402828
 0001:00001834       loc_402834
 0001:00001838       loc_402838
 0001:0000183C       ___scrt_initialize_crt
 0001:0000184C       loc_40284C
 0001:0000185A       loc_40285A
 0001:0000185E       loc_40285E
 0001:00001871       loc_402871
 0001:00001875       ___scrt_initialize_onexit_tables
 0001:00001885       loc_402885
 0001:00001892       loc_402892
 0001:000018BD       loc_4028BD
 0001:000018C1       loc_4028C1
 0001:000018E8       loc_4028E8
 0001:000018F1       loc_4028F1
 0001:000018F4       loc_4028F4
 0001:000018FC       ___scrt_is_nonwritable_in_current_image
 0001:00001977       loc_402977
 0001:00001980       loc_402980
 0001:00001990       ___scrt_release_startup_lock
 0001:000019AB       loc_4029AB
 0001:000019AD       ___scrt_uninitialize_crt
 0001:000019BF       loc_4029BF
 0001:000019D1       loc_4029D1
 0001:000019D5       __onexit
 0001:000019EB       loc_4029EB
 0001:000019F6       loc_4029F6
 0001:00001A02       _atexit
 0001:00001A17       ___get_entropy
 0001:00001A64       ___security_init_cookie
 0001:00001A7E       loc_402A7E
 0001:00001A90       loc_402A90
 0001:00001A9E       loc_402A9E
 0001:00001AA4       loc_402AA4
 0001:00001AAF       UserMathErrorFunction
 0001:00001AB2       sub_402AB2
 0001:00001AB6       __get_startup_file_mode
 0001:00001ABC       sub_402ABC
 0001:00001AC8       sub_402AC8
 0001:00001ACB       __initialize_default_precision
 0001:00001AE4       loc_402AE4
 0001:00001AEC       nullsub_1
 0001:00001AEF       sub_402AEF
 0001:00001AF5       sub_402AF5
 0001:00001AFB       ___scrt_initialize_default_local_stdio_options
 0001:00001B18       sub_402B18
 0001:00001B24       sub_402B24
 0001:00001B2A       sub_402B2A
 0001:00001B30       ___scrt_fastfail
 0001:00001B4A       loc_402B4A
 0001:00001C47       loc_402C47
 0001:00001C4A       ___scrt_get_show_window_mode
 0001:00001C76       loc_402C76
 0001:00001C7B       j_UserMathErrorFunction
 0001:00001C80       ___scrt_is_managed_app
 0001:00001CC0       loc_402CC0
 0001:00001CC3       sub_402CC3
 0001:00001CCF       __scrt_unhandled_exception_filter(x)
 0001:00001D06       loc_402D06
 0001:00001D0E       loc_402D0E
 0001:00001D25       sub_402D25
 0001:00001D2D       sub_402D2D
 0001:00001D3E       loc_402D3E
 0001:00001D4E       loc_402D4E
 0001:00001D56       loc_402D56
 0001:00001D59       sub_402D59
 0001:00001D6A       loc_402D6A
 0001:00001D7A       loc_402D7A
 0001:00001D82       loc_402D82
 0001:00001D90       sub_402D90
 0001:00001DE8       __except_handler4
 0001:00001E17       ___isa_available_init
 0001:00001ED3       loc_402ED3
 0001:00001EE4       loc_402EE4
 0001:00001EEA       loc_402EEA
 0001:00001F27       loc_402F27
 0001:00001F2A       loc_402F2A
 0001:00001FE0       loc_402FE0
 0001:00001FE3       loc_402FE3
 0001:00001FE7       ___scrt_is_ucrt_dll_in_use
 0001:00001FF3       memset
 0001:00001FF9       memcpy
 0001:00001FFF       __current_exception
 0001:00002005       __current_exception_context
 0001:0000200B       _except_handler4_common
 0001:00002011       _seh_filter_exe
 0001:00002017       _set_app_type
 0001:0000201D       __setusermatherr
 0001:00002023       _configure_wide_argv
 0001:00002029       _initialize_wide_environment
 0001:0000202F       _get_wide_winmain_command_line
 0001:00002035       _initterm
 0001:0000203B       _initterm_e
 0001:00002041       exit
 0001:00002047       _exit
 0001:0000204D       _set_fmode
 0001:00002053       _cexit
 0001:00002059       _c_exit
 0001:0000205F       _register_thread_local_exe_atexit_callback
 0001:00002065       _configthreadlocale
 0001:0000206B       _set_new_mode
 0001:00002071       __p__commode
 0001:00002077       _initialize_onexit_table
 0001:0000207D       _register_onexit_function
 0001:00002083       _crt_atexit
 0001:00002089       _controlfp_s
 0001:0000208F       terminate
 0001:00002095       IsProcessorFeaturePresent
 0001:0000209B       __filter_x86_sse2_floating_point_exception_default
 0001:000020BA       loc_4030BA
 0001:000020D6       loc_4030D6
 0001:000020EB       loc_4030EB
 0001:000020F9       loc_4030F9
 0001:00002107       loc_403107
 0001:0000210E       loc_40310E
 0002:00000144       ___guard_check_icall_fptr
 0002:00000148       dword_404148
 0002:00000158       dword_404158
 0002:0000015C       First
 0002:00000168       Last
 0002:00000180       FileName
 0002:00000188       pszFaceName
 0002:00000190       aUnregistered
 0002:000001A0       Caption
 0002:000001A8       Text
 0002:000001D4       aErr
 0002:000001D8       aWriteDataError
 0002:000001EC       aInvaildInput
 0002:00000200       word_404200
 0002:00000240       word_404240
 0002:00000250       ExceptionInfo
 0002:00000278       __load_config_used
 0002:00000330       ___safe_se_handler_table
 0002:00000334       unk_404334
 0002:000005A0       unk_4045A0
 0002:000005A8       unk_4045A8
 0002:000005B0       unk_4045B0
 0002:000005D0       unk_4045D0
 0002:000005EC       __IMPORT_DESCRIPTOR_KERNEL32
 0002:00000600       __IMPORT_DESCRIPTOR_USER32
 0002:00000614       __IMPORT_DESCRIPTOR_GDI32
 0002:00000628       __IMPORT_DESCRIPTOR_VCRUNTIME140
 0002:000006B4       off_4046B4
 0002:000006C0       off_4046C0
 0002:00000710       off_404710
 0002:00000774       off_404774
 0002:0000078C       off_40478C
 0002:00000794       off_404794
 0002:0000079C       off_40479C
 0002:000007A4       off_4047A4
 0002:000007EC       off_4047EC
 0002:000007F8       word_4047F8
 0002:00000806       word_404806
 0002:00000812       word_404812
 0002:0000081E       word_40481E
 0002:0000082C       word_40482C
 0002:00000840       word_404840
 0002:0000084C       aKernel32Dll
 0002:0000085A       word_40485A
 0002:00000868       word_404868
 0002:00000876       word_404876
 0002:0000088A       word_40488A
 0002:0000089E       word_40489E
 0002:000008B0       word_4048B0
 0002:000008C2       word_4048C2
 0002:000008D6       word_4048D6
 0002:000008E8       word_4048E8
 0002:000008F8       word_4048F8
 0002:00000906       word_404906
 0002:00000918       word_404918
 0002:00000924       word_404924
 0002:00000936       word_404936
 0002:0000094A       word_40494A
 0002:00000962       word_404962
 0002:0000096E       word_40496E
 0002:0000097E       word_40497E
 0002:0000098C       word_40498C
 0002:00000998       word_404998
 0002:000009AA       word_4049AA
 0002:000009BA       word_4049BA
 0002:000009C8       word_4049C8
 0002:000009D6       word_4049D6
 0002:000009E2       aUser32Dll
 0002:000009EE       word_4049EE
 0002:000009FC       word_4049FC
 0002:00000A0C       aGdi32Dll
 0002:00000A16       word_404A16
 0002:00000A20       word_404A20
 0002:00000A2A       word_404A2A
 0002:00000A40       word_404A40
 0002:00000A5E       word_404A5E
 0002:00000A78       aVcruntime140Dl
 0002:00000A8A       word_404A8A
 0002:00000A9C       word_404A9C
 0002:00000AAC       word_404AAC
 0002:00000AC0       word_404AC0
 0002:00000AD8       word_404AD8
 0002:00000AF8       word_404AF8
 0002:00000B1A       word_404B1A
 0002:00000B26       word_404B26
 0002:00000B34       word_404B34
 0002:00000B3C       word_404B3C
 0002:00000B44       word_404B44
 0002:00000B52       word_404B52
 0002:00000B5C       word_404B5C
 0002:00000B66       word_404B66
 0002:00000B94       word_404B94
 0002:00000BAA       word_404BAA
 0002:00000BBA       word_404BBA
 0002:00000BCA       word_404BCA
 0002:00000BE6       word_404BE6
 0002:00000C02       word_404C02
 0002:00000C10       word_404C10
 0002:00000C20       word_404C20
 0002:00000C2C       aApiMsWinCrtRun
 0002:00000C4E       aApiMsWinCrtMat
 0002:00000C6E       aApiMsWinCrtStd
 0002:00000C8E       aApiMsWinCrtLoc
 0002:00000CB0       aApiMsWinCrtHea
 0002:00000CD0       word_404CD0
 0002:00000CEC       word_404CEC
 0002:00000D0A       word_404D0A
 0002:00000D1E       word_404D1E
 0002:00000D32       word_404D32
 0002:00000D4E       word_404D4E
 0002:00000D68       word_404D68
 0002:00000D7E       word_404D7E
 0002:00000D94       word_404D94
 0002:00000DAE       word_404DAE
 0002:00000DC4       word_404DC4
 0002:00000DD8       word_404DD8
 0002:00000DEA       word_404DEA
 0003:00000000       dword_405000
 0003:00000004       ___security_cookie
 0003:0000000C       dword_40500C
 0003:00000010       dword_405010
 0003:00000014       dword_405014
 0003:00000018       aTest
 0003:00000028       szEncryPtArry
 0003:0000002C       dword_40502C
 0003:00000030       dword_405030
 0003:00000034       dword_405034
 0003:00000038       dword_405038
 0003:0000003C       xmmword_40503C
 0003:00000050       hInstance
 0003:00000054       IsSucess
 0003:00000058       aRetroregister_0
 0003:000000D8       aRetroregister
 0003:00000158       asc_405158
 0003:000001D8       String
 0003:00000258       a23456789abcdef
 0003:0000027C       dword_40527C
 0003:00000284       dword_405284
 0003:00000288       dword_405288
 0003:0000028C       dword_40528C
 0003:000002C8       dword_4052C8
 0003:00000354       word_405354
 0003:00000358       word_405358
 0003:0000035C       word_40535C
 0003:00000360       word_405360
 0003:00000364       dword_405364
 0003:00000368       dword_405368
 0003:0000036C       dword_40536C
 0003:00000370       dword_405370
 0003:00000374       dword_405374
 0003:00000378       dword_405378
 0003:0000037C       dword_40537C
 0003:00000380       dword_405380
 0003:00000384       word_405384
 0003:00000388       dword_405388
 0003:0000038C       dword_40538C
 0003:00000390       word_405390
 0003:00000594       dword_405594
 0003:00000598       unk_405598
 0003:0000059C       byte_40559C
 0003:0000059D       byte_40559D
 0003:000005A0       Table
 0003:000005AC       stru_4055AC
 0003:000005B8       ListHead
 0003:000005C0       unk_4055C0
 0003:000005C8       unk_4055C8
 0003:000005D0       dword_4055D0
 0003:000005D4       dword_4055D4
 0003:000005D8       dword_4055D8
 0003:000005DC       unk_4055DC
 0003:000005E0       unk_4055E0

Program entry point at 0001:0000169B
